; Function Attrs: mustprogress uwtable
define hidden noundef nonnull ptr @_ZN2cv12cpu_baseline23getPerspectiveTransformEi(i32 noundef %0) local_unnamed_addr #3 personality ptr @__gxx_personality_v0 {
  %2 = alloca %"class.std::__cxx11::basic_string", align 8
  %3 = alloca %"class.std::allocator", align 1
  switch i32 %0, label %5 [
    i32 5, label %15
    i32 6, label %4
  ]

4:                                                ; preds = %1
  br label %15

5:                                                ; preds = %1
  call void @llvm.lifetime.start.p0(i64 32, ptr nonnull %2) #27
  call void @llvm.lifetime.start.p0(i64 1, ptr nonnull %3) #27
  call void @_ZNSt7__cxx1112basic_stringIcSt11char_traitsIcESaIcEEC2EPKcRKS3_(ptr noundef nonnull align 8 dereferenceable(32) %2, ptr noundef nonnull @.str.5, ptr noundef nonnull align 1 dereferenceable(1) %3)
  invoke void @_ZN2cv5errorEiRKNSt7__cxx1112basic_stringIcSt11char_traitsIcESaIcEEEPKcS9_i(i32 noundef -215, ptr noundef nonnull align 8 dereferenceable(32) %2, ptr noundef nonnull @__func__._ZN2cv12cpu_baseline23getPerspectiveTransformEi, ptr noundef nonnull @.str.1, i32 noundef 1929) #29
          to label %6 unwind label %7

6:                                                ; preds = %5
  unreachable

7:                                                ; preds = %5
  %8 = landingpad { ptr, i32 }
          cleanup
  %9 = load ptr, ptr %2, align 8, !tbaa !104
  %10 = getelementptr inbounds nuw i8, ptr %2, i64 16
  %11 = icmp eq ptr %9, %10
  br i1 %11, label %_ZNKSt7__cxx1112basic_stringIcSt11char_traitsIcESaIcEE11_M_is_localEv.exit.thread.i.i, label %_ZNKSt7__cxx1112basic_stringIcSt11char_traitsIcESaIcEE11_M_is_localEv.exit.i.i

_ZNKSt7__cxx1112basic_stringIcSt11char_traitsIcESaIcEE11_M_is_localEv.exit.thread.i.i: ; preds = %7
  %12 = getelementptr inbounds nuw i8, ptr %2, i64 8
  %13 = load i64, ptr %12, align 8, !tbaa !109
  %14 = icmp ult i64 %13, 16
  call void @llvm.assume(i1 %14)
  br label %_ZNSt7__cxx1112basic_stringIcSt11char_traitsIcESaIcEED2Ev.exit

_ZNKSt7__cxx1112basic_stringIcSt11char_traitsIcESaIcEE11_M_is_localEv.exit.i.i: ; preds = %7
  call void @_ZdlPv(ptr noundef %9) #30
  br label %_ZNSt7__cxx1112basic_stringIcSt11char_traitsIcESaIcEED2Ev.exit

_ZNSt7__cxx1112basic_stringIcSt11char_traitsIcESaIcEED2Ev.exit: ; preds = %_ZNKSt7__cxx1112basic_stringIcSt11char_traitsIcESaIcEE11_M_is_localEv.exit.i.i, %_ZNKSt7__cxx1112basic_stringIcSt11char_traitsIcESaIcEE11_M_is_localEv.exit.thread.i.i
  call void @llvm.lifetime.end.p0(i64 1, ptr nonnull %3) #27
  call void @llvm.lifetime.end.p0(i64 32, ptr nonnull %2) #27
  resume { ptr, i32 } %8

15:                                               ; preds = %1, %4
  %.05 = phi ptr [ @_ZN2cv12cpu_baselineL24perspectiveTransform_64fEPKdPdS2_iii, %4 ], [ @_ZN2cv12cpu_baselineL24perspectiveTransform_32fEPKfPfPKdiii, %1 ]
  ret ptr %.05
}